target datalayout = "e-m:e-p270:32:32-p271:32:32-p272:64:64-i64:64-i128:128-f80:128-n8:16:32:64-S128"
target triple = "x86_64-pc-linux-gnu"

%"class.Ipopt::RestoFilterConvergenceCheck" = type { %"class.Ipopt::RestoConvergenceCheck", ptr }
%"class.Ipopt::RestoConvergenceCheck" = type { %"class.Ipopt::OptimalityErrorConvergenceCheck.base", double, i32, i32, double, i8, i32 }
%"class.Ipopt::OptimalityErrorConvergenceCheck.base" = type <{ %"class.Ipopt::ConvergenceCheck.base", [3 x i8], i32, double, double, double, i32, [4 x i8], double, double, double, double, double, double, double, double, double, i32, [4 x i8], double, double, i32 }>
%"class.Ipopt::ConvergenceCheck.base" = type { %"class.Ipopt::AlgorithmStrategyObject.base" }
%"class.Ipopt::AlgorithmStrategyObject.base" = type <{ %"class.Ipopt::ReferencedObject.base", [4 x i8], %"class.Ipopt::SmartPtr", %"class.Ipopt::SmartPtr.0", %"class.Ipopt::SmartPtr.1", %"class.Ipopt::SmartPtr.2", i8 }>
%"class.Ipopt::ReferencedObject.base" = type <{ ptr, i32 }>
%"class.Ipopt::SmartPtr" = type { ptr }
%"class.Ipopt::SmartPtr.0" = type { ptr }
%"class.Ipopt::SmartPtr.1" = type { ptr }
%"class.Ipopt::SmartPtr.2" = type { ptr }
%"class.Ipopt::AlgorithmStrategyObject" = type <{ %"class.Ipopt::ReferencedObject.base", [4 x i8], %"class.Ipopt::SmartPtr", %"class.Ipopt::SmartPtr.0", %"class.Ipopt::SmartPtr.1", %"class.Ipopt::SmartPtr.2", i8, [7 x i8] }>

@.str = private unnamed_addr constant [49 x i8] c"Point is not acceptable to the original filter.\0A\00", align 1
@.str.1 = private unnamed_addr constant [56 x i8] c"Point is not acceptable to the original current point.\0A\00", align 1
@.str.2 = private unnamed_addr constant [112 x i8] c"Restoration found a point that provides sufficient reduction in theta and is acceptable to the current filter.\0A\00", align 1

; Function Attrs: mustprogress nounwind uwtable
define linkonce_odr noundef nonnull align 8 dereferenceable(40) ptr @_ZNK5Ipopt8SmartPtrIKNS_10JournalistEEdeEv(ptr noundef nonnull align 8 dereferenceable(8) %0) #5 comdat align 2 {
  %2 = alloca ptr, align 8
  store ptr %0, ptr %2, align 8, !tbaa !42
  %3 = load ptr, ptr %2, align 8
  %4 = getelementptr inbounds nuw %"class.Ipopt::SmartPtr", ptr %3, i32 0, i32 0
  %5 = load ptr, ptr %4, align 8, !tbaa !44
  ret ptr %5
}

; Function Attrs: mustprogress uwtable
define linkonce_odr noundef nonnull align 8 dereferenceable(40) ptr @_ZNK5Ipopt23AlgorithmStrategyObject5JnlstEv(ptr noundef nonnull align 8 dereferenceable(49) %0) #4 comdat align 2 {
  %2 = alloca ptr, align 8
  store ptr %0, ptr %2, align 8, !tbaa !40
  %3 = load ptr, ptr %2, align 8
  %4 = getelementptr inbounds nuw %"class.Ipopt::AlgorithmStrategyObject", ptr %3, i32 0, i32 2
  %5 = call noundef nonnull align 8 dereferenceable(40) ptr @_ZNK5Ipopt8SmartPtrIKNS_10JournalistEEdeEv(ptr noundef nonnull align 8 dereferenceable(8) %4)
  ret ptr %5
}

; Function Attrs: mustprogress uwtable
define noundef i32 @_ZN5Ipopt27RestoFilterConvergenceCheck16TestOrigProgressEdd(ptr noundef nonnull align 8 dereferenceable(232) %0, double noundef %1, double noundef %2) unnamed_addr #4 align 2 {
  %4 = alloca ptr, align 8
  %5 = alloca double, align 8
  %6 = alloca double, align 8
  %7 = alloca i32, align 4
  store ptr %0, ptr %4, align 8, !tbaa !3
  store double %1, ptr %5, align 8, !tbaa !37
  store double %2, ptr %6, align 8, !tbaa !37
  %8 = load ptr, ptr %4, align 8
  call void @llvm.lifetime.start.p0(i64 4, ptr %7) #3
  %9 = getelementptr inbounds nuw %"class.Ipopt::RestoFilterConvergenceCheck", ptr %8, i32 0, i32 1
  %10 = load ptr, ptr %9, align 8, !tbaa !10
  %11 = load double, ptr %5, align 8, !tbaa !37
  %12 = load double, ptr %6, align 8, !tbaa !37
  %13 = call noundef zeroext i1 @_ZNK5Ipopt16FilterLSAcceptor27IsAcceptableToCurrentFilterEdd(ptr noundef nonnull align 8 dereferenceable(304) %10, double noundef %11, double noundef %12)
  br i1 %13, label %19, label %14

14:                                               ; preds = %3
  %15 = call noundef nonnull align 8 dereferenceable(40) ptr @_ZNK5Ipopt23AlgorithmStrategyObject5JnlstEv(ptr noundef nonnull align 8 dereferenceable(49) %8)
  %16 = load ptr, ptr %15, align 8, !tbaa !8
  %17 = getelementptr inbounds ptr, ptr %16, i64 2
  %18 = load ptr, ptr %17, align 8
  call void (ptr, i32, i32, ptr, ...) %18(ptr noundef nonnull align 8 dereferenceable(40) %15, i32 noundef 6, i32 noundef 2, ptr noundef @.str)
  store i32 0, ptr %7, align 4, !tbaa !38
  br label %36

19:                                               ; preds = %3
  %20 = getelementptr inbounds nuw %"class.Ipopt::RestoFilterConvergenceCheck", ptr %8, i32 0, i32 1
  %21 = load ptr, ptr %20, align 8, !tbaa !10
  %22 = load double, ptr %5, align 8, !tbaa !37
  %23 = load double, ptr %6, align 8, !tbaa !37
  %24 = call noundef zeroext i1 @_ZNK5Ipopt16FilterLSAcceptor28IsAcceptableToCurrentIterateEddb(ptr noundef nonnull align 8 dereferenceable(304) %21, double noundef %22, double noundef %23, i1 noundef zeroext true)
  br i1 %24, label %30, label %25

25:                                               ; preds = %19
  %26 = call noundef nonnull align 8 dereferenceable(40) ptr @_ZNK5Ipopt23AlgorithmStrategyObject5JnlstEv(ptr noundef nonnull align 8 dereferenceable(49) %8)
  %27 = load ptr, ptr %26, align 8, !tbaa !8
  %28 = getelementptr inbounds ptr, ptr %27, i64 2
  %29 = load ptr, ptr %28, align 8
  call void (ptr, i32, i32, ptr, ...) %29(ptr noundef nonnull align 8 dereferenceable(40) %26, i32 noundef 6, i32 noundef 2, ptr noundef @.str.1)
  store i32 0, ptr %7, align 4, !tbaa !38
  br label %35

30:                                               ; preds = %19
  %31 = call noundef nonnull align 8 dereferenceable(40) ptr @_ZNK5Ipopt23AlgorithmStrategyObject5JnlstEv(ptr noundef nonnull align 8 dereferenceable(49) %8)
  %32 = load ptr, ptr %31, align 8, !tbaa !8
  %33 = getelementptr inbounds ptr, ptr %32, i64 2
  %34 = load ptr, ptr %33, align 8
  call void (ptr, i32, i32, ptr, ...) %34(ptr noundef nonnull align 8 dereferenceable(40) %31, i32 noundef 6, i32 noundef 2, ptr noundef @.str.2)
  store i32 1, ptr %7, align 4, !tbaa !38
  br label %35

35:                                               ; preds = %30, %25
  br label %36

36:                                               ; preds = %35, %14
  %37 = load i32, ptr %7, align 4, !tbaa !38
  call void @llvm.lifetime.end.p0(i64 4, ptr %7) #3
  ret i32 %37
}