; Function Attrs: mustprogress uwtable
define noundef range(i32 0, 2) i32 @_ZN5Ipopt27RestoFilterConvergenceCheck16TestOrigProgressEdd(ptr noundef nonnull readonly align 8 captures(none) dereferenceable(232) %0, double noundef %1, double noundef %2) unnamed_addr #3 align 2 {
  %4 = getelementptr inbounds nuw i8, ptr %0, i64 224
  %5 = load ptr, ptr %4, align 8, !tbaa !6
  %6 = tail call noundef zeroext i1 @_ZNK5Ipopt16FilterLSAcceptor27IsAcceptableToCurrentFilterEdd(ptr noundef nonnull align 8 dereferenceable(304) %5, double noundef %1, double noundef %2)
  br i1 %6, label %13, label %7

7:                                                ; preds = %3
  %8 = getelementptr inbounds nuw i8, ptr %0, i64 16
  %9 = load ptr, ptr %8, align 8, !tbaa !27
  %10 = load ptr, ptr %9, align 8, !tbaa !3
  %11 = getelementptr inbounds nuw i8, ptr %10, i64 16
  %12 = load ptr, ptr %11, align 8
  tail call void (ptr, i32, i32, ptr, ...) %12(ptr noundef nonnull align 8 dereferenceable(40) %9, i32 noundef 6, i32 noundef 2, ptr noundef nonnull @.str)
  br label %23

13:                                               ; preds = %3
  %14 = load ptr, ptr %4, align 8, !tbaa !6
  %15 = tail call noundef zeroext i1 @_ZNK5Ipopt16FilterLSAcceptor28IsAcceptableToCurrentIterateEddb(ptr noundef nonnull align 8 dereferenceable(304) %14, double noundef %1, double noundef %2, i1 noundef zeroext true)
  %16 = getelementptr inbounds nuw i8, ptr %0, i64 16
  %17 = load ptr, ptr %16, align 8, !tbaa !27
  %18 = load ptr, ptr %17, align 8, !tbaa !3
  %19 = getelementptr inbounds nuw i8, ptr %18, i64 16
  %20 = load ptr, ptr %19, align 8
  br i1 %15, label %22, label %21

21:                                               ; preds = %13
  tail call void (ptr, i32, i32, ptr, ...) %20(ptr noundef nonnull align 8 dereferenceable(40) %17, i32 noundef 6, i32 noundef 2, ptr noundef nonnull @.str.1)
  br label %23

22:                                               ; preds = %13
  tail call void (ptr, i32, i32, ptr, ...) %20(ptr noundef nonnull align 8 dereferenceable(40) %17, i32 noundef 6, i32 noundef 2, ptr noundef nonnull @.str.2)
  br label %23

23:                                               ; preds = %21, %22, %7
  %.0 = phi i32 [ 1, %22 ], [ 0, %21 ], [ 0, %7 ]
  ret i32 %.0
}